target datalayout = "e-m:e-p270:32:32-p271:32:32-p272:64:64-i64:64-i128:128-f80:128-n8:16:32:64-S128"
target triple = "x86_64-pc-linux-gnu"

%struct.rb_data_type_struct = type { ptr, %struct.anon, ptr, ptr, i64 }
%struct.anon = type { ptr, ptr, ptr, ptr, [1 x ptr] }

@ossl_cipher_type = internal constant %struct.rb_data_type_struct { ptr @.str.30, %struct.anon { ptr null, ptr @ossl_cipher_free, ptr null, ptr null, [1 x ptr] zeroinitializer }, ptr null, ptr null, i64 33 }, align 8
@rb_eRuntimeError = external global i64, align 8
@.str = private unnamed_addr constant [24 x i8] c"Cipher not initialized!\00", align 1
@eCipherError = internal global i64 0, align 8

; Function Attrs: inlinehint nounwind sspstrong willreturn memory(none) uwtable
define internal zeroext i1 @RB_FIXNUM_P(i64 noundef %0) #10 {
  %2 = alloca i64, align 8
  store i64 %0, ptr %2, align 8, !tbaa !6
  %3 = load i64, ptr %2, align 8, !tbaa !6
  %4 = and i64 %3, 1
  %5 = icmp ne i64 %4, 0
  ret i1 %5
}

; Function Attrs: inlinehint nounwind sspstrong uwtable
define internal i32 @rb_num2int_inline(i64 noundef %0) #4 {
  %2 = alloca i64, align 8
  %3 = alloca i64, align 8
  store i64 %0, ptr %2, align 8, !tbaa !6
  call void @llvm.lifetime.start.p0(i64 8, ptr %3) #20
  %4 = load i64, ptr %2, align 8, !tbaa !6
  %5 = call zeroext i1 @RB_FIXNUM_P(i64 noundef %4) #24
  br i1 %5, label %6, label %9

6:                                                ; preds = %1
  %7 = load i64, ptr %2, align 8, !tbaa !6
  %8 = call i64 @rb_fix2int(i64 noundef %7)
  store i64 %8, ptr %3, align 8, !tbaa !6
  br label %12

9:                                                ; preds = %1
  %10 = load i64, ptr %2, align 8, !tbaa !6
  %11 = call i64 @rb_num2int(i64 noundef %10)
  store i64 %11, ptr %3, align 8, !tbaa !6
  br label %12

12:                                               ; preds = %9, %6
  %13 = load i64, ptr %3, align 8, !tbaa !6
  %14 = trunc i64 %13 to i32
  call void @llvm.lifetime.end.p0(i64 8, ptr %3) #20
  ret i32 %14
}

; Function Attrs: nounwind sspstrong uwtable
define internal i64 @ossl_cipher_set_ccm_data_len(i64 noundef %0, i64 noundef %1) #0 {
  %3 = alloca i64, align 8
  %4 = alloca i64, align 8
  %5 = alloca i32, align 4
  %6 = alloca i32, align 4
  %7 = alloca ptr, align 8
  store i64 %0, ptr %3, align 8, !tbaa !6
  store i64 %1, ptr %4, align 8, !tbaa !6
  call void @llvm.lifetime.start.p0(i64 4, ptr %5) #20
  call void @llvm.lifetime.start.p0(i64 4, ptr %6) #20
  call void @llvm.lifetime.start.p0(i64 8, ptr %7) #20
  %8 = load i64, ptr %4, align 8, !tbaa !6
  %9 = call i32 @rb_num2int_inline(i64 noundef %8)
  store i32 %9, ptr %5, align 4, !tbaa !22
  br label %10

10:                                               ; preds = %2
  br label %11

11:                                               ; preds = %10
  %12 = load i64, ptr %3, align 8, !tbaa !6
  %13 = call ptr @rb_check_typeddata(i64 noundef %12, ptr noundef @ossl_cipher_type)
  store ptr %13, ptr %7, align 8, !tbaa !10
  br label %14

14:                                               ; preds = %11
  br label %15

15:                                               ; preds = %14
  %16 = load ptr, ptr %7, align 8, !tbaa !10
  %17 = icmp ne ptr %16, null
  br i1 %17, label %20, label %18

18:                                               ; preds = %15
  %19 = load i64, ptr @rb_eRuntimeError, align 8, !tbaa !6
  call void (i64, ptr, ...) @ossl_raise(i64 noundef %19, ptr noundef @.str) #21
  unreachable

20:                                               ; preds = %15
  br label %21

21:                                               ; preds = %20
  br label %22

22:                                               ; preds = %21
  %23 = load ptr, ptr %7, align 8, !tbaa !10
  %24 = load i32, ptr %5, align 4, !tbaa !22
  %25 = call i32 @EVP_CipherUpdate(ptr noundef %23, ptr noundef null, ptr noundef %6, ptr noundef null, i32 noundef %24)
  %26 = icmp ne i32 %25, 1
  br i1 %26, label %27, label %29

27:                                               ; preds = %22
  %28 = load i64, ptr @eCipherError, align 8, !tbaa !6
  call void (i64, ptr, ...) @ossl_raise(i64 noundef %28, ptr noundef null) #21
  unreachable

29:                                               ; preds = %22
  %30 = load i64, ptr %4, align 8, !tbaa !6
  call void @llvm.lifetime.end.p0(i64 8, ptr %7) #20
  call void @llvm.lifetime.end.p0(i64 4, ptr %6) #20
  call void @llvm.lifetime.end.p0(i64 4, ptr %5) #20
  ret i64 %30
}