; Function Attrs: nounwind sspstrong uwtable
define internal noundef i64 @ossl_cipher_set_ccm_data_len(i64 noundef %0, i64 noundef returned %1) #0 {
  %3 = alloca i32, align 4
  call void @llvm.lifetime.start.p0(i64 4, ptr nonnull %3) #11
  %4 = and i64 %1, 1
  %.not.i = icmp eq i64 %4, 0
  br i1 %.not.i, label %7, label %5

5:                                                ; preds = %2
  %6 = tail call i64 @rb_fix2int(i64 noundef %1) #11
  br label %rb_num2int_inline.exit

7:                                                ; preds = %2
  %8 = tail call i64 @rb_num2int(i64 noundef %1) #11
  br label %rb_num2int_inline.exit

rb_num2int_inline.exit:                           ; preds = %5, %7
  %.0.i = phi i64 [ %6, %5 ], [ %8, %7 ]
  %9 = tail call ptr @rb_check_typeddata(i64 noundef %0, ptr noundef nonnull @ossl_cipher_type) #11
  %.not = icmp eq ptr %9, null
  br i1 %.not, label %10, label %12

10:                                               ; preds = %rb_num2int_inline.exit
  %11 = load i64, ptr @rb_eRuntimeError, align 8, !tbaa !6
  tail call void (i64, ptr, ...) @ossl_raise(i64 noundef %11, ptr noundef nonnull @.str) #12
  unreachable

12:                                               ; preds = %rb_num2int_inline.exit
  %13 = trunc i64 %.0.i to i32
  %14 = call i32 @EVP_CipherUpdate(ptr noundef nonnull %9, ptr noundef null, ptr noundef nonnull %3, ptr noundef null, i32 noundef %13) #11
  %.not5 = icmp eq i32 %14, 1
  br i1 %.not5, label %17, label %15

15:                                               ; preds = %12
  %16 = load i64, ptr @eCipherError, align 8, !tbaa !6
  call void (i64, ptr, ...) @ossl_raise(i64 noundef %16, ptr noundef null) #12
  unreachable

17:                                               ; preds = %12
  call void @llvm.lifetime.end.p0(i64 4, ptr nonnull %3) #11
  ret i64 %1
}